; Function Attrs: mustprogress uwtable
define hidden void @_ZN2dd11bdd_manager6mk_xorERKNS_3bddES3_(ptr noalias nocapture writeonly sret(%"class.dd::bdd") align 8 %agg.result, ptr noundef nonnull align 8 dereferenceable(728) %this, ptr nocapture noundef nonnull readonly align 8 dereferenceable(16) %a, ptr nocapture noundef nonnull readonly align 8 dereferenceable(16) %b) local_unnamed_addr #3 align 2 {
entry:
  %0 = load i32, ptr %a, align 8
  %1 = load i32, ptr %b, align 8
  %call = tail call noundef i32 @_ZN2dd11bdd_manager5applyEjjNS0_6bdd_opE(ptr noundef nonnull align 8 dereferenceable(728) %this, i32 noundef %0, i32 noundef %1, i32 noundef 4)
  store i32 %call, ptr %agg.result, align 8
  %m3.i = getelementptr inbounds i8, ptr %agg.result, i64 8
  store ptr %this, ptr %m3.i, align 8
  %m_nodes.i.i = getelementptr inbounds i8, ptr %this, i64 8
  %2 = load ptr, ptr %m_nodes.i.i, align 8
  %idxprom.i.i.i = zext i32 %call to i64
  %arrayidx.i.i.i = getelementptr inbounds %"struct.dd::bdd_manager::bdd_node", ptr %2, i64 %idxprom.i.i.i
  %bf.load.i.i = load i32, ptr %arrayidx.i.i.i, align 4
  %bf.clear.i.i = and i32 %bf.load.i.i, 1023
  %cmp.not.i.i = icmp eq i32 %bf.clear.i.i, 1023
  br i1 %cmp.not.i.i, label %if.end.i.i, label %if.then.i.i

if.then.i.i:                                      ; preds = %entry
  %inc.i.i = add i32 %bf.load.i.i, 1
  %bf.value.i.i = and i32 %inc.i.i, 1023
  %bf.clear7.i.i = and i32 %bf.load.i.i, -1024
  %bf.set.i.i = or disjoint i32 %bf.value.i.i, %bf.clear7.i.i
  store i32 %bf.set.i.i, ptr %arrayidx.i.i.i, align 4
  br label %if.end.i.i

if.end.i.i:                                       ; preds = %if.then.i.i, %entry
  %m_free_nodes.i.i = getelementptr inbounds i8, ptr %this, i64 112
  %3 = load ptr, ptr %m_free_nodes.i.i, align 8
  %cmp.i.i.i.i.i = icmp eq ptr %3, null
  br i1 %cmp.i.i.i.i.i, label %_ZN2dd3bddC2EjPNS_11bdd_managerE.exit, label %_ZNK6vectorIjLb0EjE3endEv.exit.i.i.i

_ZNK6vectorIjLb0EjE3endEv.exit.i.i.i:             ; preds = %if.end.i.i
  %arrayidx.i.i.i.i.i = getelementptr inbounds i8, ptr %3, i64 -4
  %4 = load i32, ptr %arrayidx.i.i.i.i.i, align 4
  %5 = zext i32 %4 to i64
  %add.ptr.i.i.i.i = getelementptr inbounds i32, ptr %3, i64 %5
  %cmp.not3.not.i.i.i = icmp eq i32 %4, 0
  br i1 %cmp.not3.not.i.i.i, label %_ZN2dd3bddC2EjPNS_11bdd_managerE.exit, label %for.body.i.i.i

for.cond.i.i.i:                                   ; preds = %for.body.i.i.i
  %incdec.ptr.i.i.i = getelementptr inbounds i8, ptr %it.04.i.i.i, i64 4
  %cmp.not.not.i.i.i = icmp eq ptr %incdec.ptr.i.i.i, %add.ptr.i.i.i.i
  br i1 %cmp.not.not.i.i.i, label %_ZN2dd3bddC2EjPNS_11bdd_managerE.exit, label %for.body.i.i.i, !llvm.loop !19

for.body.i.i.i:                                   ; preds = %_ZNK6vectorIjLb0EjE3endEv.exit.i.i.i, %for.cond.i.i.i
  %it.04.i.i.i = phi ptr [ %incdec.ptr.i.i.i, %for.cond.i.i.i ], [ %3, %_ZNK6vectorIjLb0EjE3endEv.exit.i.i.i ]
  %6 = load i32, ptr %it.04.i.i.i, align 4
  %cmp3.i.i.i = icmp eq i32 %6, %call
  br i1 %cmp3.i.i.i, label %if.then9.i.i, label %for.cond.i.i.i

if.then9.i.i:                                     ; preds = %for.body.i.i.i
  tail call void @_Z26notify_assertion_violationPKciS0_(ptr noundef nonnull @.str.15, i32 noundef 186, ptr noundef nonnull @.str.16)
  tail call void @exit(i32 noundef 114) #26
  unreachable

_ZN2dd3bddC2EjPNS_11bdd_managerE.exit:            ; preds = %for.cond.i.i.i, %if.end.i.i, %_ZNK6vectorIjLb0EjE3endEv.exit.i.i.i
  ret void
}